; Function Attrs: nounwind uwtable
define i32 @Abc_ObjSuppSize(ptr noundef readonly captures(none) %0) local_unnamed_addr #0 {
  %.val = load ptr, ptr %0, align 8, !tbaa !3
  %2 = getelementptr inbounds nuw i8, ptr %.val, i64 232
  %3 = load ptr, ptr %2, align 8, !tbaa !43
  %.not.i = icmp eq ptr %3, null
  br i1 %.not.i, label %4, label %Abc_NtkIncrementTravId.exit

4:                                                ; preds = %1
  %5 = getelementptr inbounds nuw i8, ptr %.val, i64 224
  %6 = getelementptr i8, ptr %.val, i64 32
  %.val.i = load ptr, ptr %6, align 8, !tbaa !35
  %7 = getelementptr i8, ptr %.val.i, i64 4
  %.val.val.i = load i32, ptr %7, align 4, !tbaa !41
  %8 = add nsw i32 %.val.val.i, 500
  %9 = load i32, ptr %5, align 8, !tbaa !29
  %.not.i.i.i = icmp slt i32 %9, %8
  br i1 %.not.i.i.i, label %10, label %Vec_IntGrow.exit.i.i

10:                                               ; preds = %4
  %11 = sext i32 %8 to i64
  %12 = shl nsw i64 %11, 2
  %13 = tail call noalias ptr @malloc(i64 noundef %12) #22
  store ptr %13, ptr %2, align 8, !tbaa !30
  store i32 %8, ptr %5, align 8, !tbaa !29
  br label %Vec_IntGrow.exit.i.i

Vec_IntGrow.exit.i.i:                             ; preds = %10, %4
  %14 = phi ptr [ %13, %10 ], [ null, %4 ]
  %15 = icmp sgt i32 %.val.val.i, -500
  br i1 %15, label %.lr.ph.i.i, label %Vec_IntFill.exit.i

.lr.ph.i.i:                                       ; preds = %Vec_IntGrow.exit.i.i
  %16 = zext nneg i32 %8 to i64
  %17 = shl nuw nsw i64 %16, 2
  tail call void @llvm.memset.p0.i64(ptr align 4 %14, i8 0, i64 %17, i1 false), !tbaa !31
  br label %Vec_IntFill.exit.i

Vec_IntFill.exit.i:                               ; preds = %.lr.ph.i.i, %Vec_IntGrow.exit.i.i
  %18 = getelementptr inbounds nuw i8, ptr %.val, i64 228
  store i32 %8, ptr %18, align 4, !tbaa !28
  br label %Abc_NtkIncrementTravId.exit

Abc_NtkIncrementTravId.exit:                      ; preds = %1, %Vec_IntFill.exit.i
  %19 = getelementptr inbounds nuw i8, ptr %.val, i64 216
  %20 = load i32, ptr %19, align 8, !tbaa !14
  %21 = add nsw i32 %20, 1
  store i32 %21, ptr %19, align 8, !tbaa !14
  %22 = tail call i32 @Abc_ObjSuppSize_rec(ptr noundef nonnull %0)
  ret i32 %22
}